target datalayout = "e-m:e-p270:32:32-p271:32:32-p272:64:64-i64:64-i128:128-f80:128-n8:16:32:64-S128"
target triple = "x86_64-unknown-linux-gnu"

%"class.smt::theory.base" = type <{ ptr, i32, [4 x i8], ptr, ptr, %class.ptr_vector, %class.svector, i32, i8 }>
%class.svector = type { %class.vector.0 }
%class.vector.0 = type { ptr }
%class.svector.3 = type { %class.vector.4 }
%class.vector.4 = type { ptr }
%class.scoped_ptr = type { ptr }
%class.ptr_vector.5 = type { %class.vector.6 }
%class.vector.6 = type { ptr }
%class.obj_map = type { %class.core_hashtable }
%class.core_hashtable = type <{ ptr, i32, i32, i32, [4 x i8] }>
%class.ptr_hashtable = type { %class.core_hashtable.base.8, [4 x i8] }
%class.core_hashtable.base.8 = type <{ ptr, i32, i32, i32 }>
%class.svector.9 = type { %class.vector.10 }
%class.vector.10 = type { ptr }
%class.ptr_vector.11 = type { %class.vector.12 }
%class.vector.12 = type { ptr }
%class.svector.1 = type { %class.vector.2 }
%class.vector.2 = type { ptr }
%class.obj_map.13 = type { %class.core_hashtable.14 }
%class.core_hashtable.14 = type <{ ptr, i32, i32, i32, [4 x i8] }>
%class.ptr_vector.18 = type { %class.vector.19 }
%class.vector.19 = type { ptr }
%class.ptr_vector = type { %class.vector }
%class.vector = type { ptr }
%"class.smt::theory_array_base" = type <{ %"class.smt::theory.base", i8, [2 x i8], i32, [4 x i8], %class.svector.1, %class.ptr_vector, %class.svector.3, %class.svector.3, %class.svector.3, %class.scoped_ptr, %class.ptr_vector.5, %class.obj_map, %class.ptr_hashtable, %class.svector.9, ptr, %class.ptr_vector, %class.ptr_vector.11, %class.svector.1, %class.obj_map.13, %class.ptr_vector, %class.ptr_vector.18, i8, [7 x i8] }>

; Function Attrs: mustprogress nounwind uwtable
define linkonce_odr hidden noundef ptr @_ZNK10scoped_ptrIN3smt17theory_array_bapaEEptEv(ptr noundef nonnull align 8 dereferenceable(8) %this) #4 comdat align 2 {
entry:
  %this.addr = alloca ptr, align 8
  store ptr %this, ptr %this.addr, align 8
  %this1 = load ptr, ptr %this.addr, align 8
  %m_ptr = getelementptr inbounds %class.scoped_ptr, ptr %this1, i32 0, i32 0
  %0 = load ptr, ptr %m_ptr, align 8
  ret ptr %0
}

; Function Attrs: mustprogress nounwind uwtable
define linkonce_odr hidden noundef zeroext i1 @_ZNK10scoped_ptrIN3smt17theory_array_bapaEEcvbEv(ptr noundef nonnull align 8 dereferenceable(8) %this) #4 comdat align 2 {
entry:
  %this.addr = alloca ptr, align 8
  store ptr %this, ptr %this.addr, align 8
  %this1 = load ptr, ptr %this.addr, align 8
  %m_ptr = getelementptr inbounds %class.scoped_ptr, ptr %this1, i32 0, i32 0
  %0 = load ptr, ptr %m_ptr, align 8
  %cmp = icmp ne ptr %0, null
  ret i1 %cmp
}

; Function Attrs: mustprogress uwtable
define hidden noundef zeroext i1 @_ZN3smt17theory_array_full15should_researchER10ref_vectorI4expr11ast_managerE(ptr noundef nonnull align 8 dereferenceable(608) %this, ptr noundef nonnull align 8 dereferenceable(16) %unsat_core) unnamed_addr #5 align 2 {
entry:
  %this.addr = alloca ptr, align 8
  %unsat_core.addr = alloca ptr, align 8
  store ptr %this, ptr %this.addr, align 8
  store ptr %unsat_core, ptr %unsat_core.addr, align 8
  %this1 = load ptr, ptr %this.addr, align 8
  %m_bapa = getelementptr inbounds %"class.smt::theory_array_base", ptr %this1, i32 0, i32 10
  %call = call noundef zeroext i1 @_ZNK10scoped_ptrIN3smt17theory_array_bapaEEcvbEv(ptr noundef nonnull align 8 dereferenceable(8) %m_bapa)
  br i1 %call, label %land.rhs, label %land.end

land.rhs:                                         ; preds = %entry
  %m_bapa2 = getelementptr inbounds %"class.smt::theory_array_base", ptr %this1, i32 0, i32 10
  %call3 = call noundef ptr @_ZNK10scoped_ptrIN3smt17theory_array_bapaEEptEv(ptr noundef nonnull align 8 dereferenceable(8) %m_bapa2)
  %0 = load ptr, ptr %unsat_core.addr, align 8
  %call4 = call noundef zeroext i1 @_ZN3smt17theory_array_bapa15should_researchER10ref_vectorI4expr11ast_managerE(ptr noundef nonnull align 8 dereferenceable(8) %call3, ptr noundef nonnull align 8 dereferenceable(16) %0)
  br label %land.end

land.end:                                         ; preds = %land.rhs, %entry
  %1 = phi i1 [ false, %entry ], [ %call4, %land.rhs ]
  ret i1 %1
}