; Function Attrs: mustprogress uwtable
define hidden noundef zeroext i1 @_ZN3smt17theory_array_full15should_researchER10ref_vectorI4expr11ast_managerE(ptr nocapture noundef nonnull readonly align 8 dereferenceable(608) %this, ptr noundef nonnull align 8 dereferenceable(16) %unsat_core) unnamed_addr #3 align 2 {
entry:
  %m_bapa = getelementptr inbounds i8, ptr %this, i64 104
  %0 = load ptr, ptr %m_bapa, align 8
  %cmp.i.not = icmp eq ptr %0, null
  br i1 %cmp.i.not, label %land.end, label %land.rhs

land.rhs:                                         ; preds = %entry
  %call4 = tail call noundef zeroext i1 @_ZN3smt17theory_array_bapa15should_researchER10ref_vectorI4expr11ast_managerE(ptr noundef nonnull align 8 dereferenceable(8) %0, ptr noundef nonnull align 8 dereferenceable(16) %unsat_core)
  br label %land.end

land.end:                                         ; preds = %land.rhs, %entry
  %1 = phi i1 [ false, %entry ], [ %call4, %land.rhs ]
  ret i1 %1
}